target datalayout = "e-m:e-p270:32:32-p271:32:32-p272:64:64-i64:64-i128:128-f80:128-n8:16:32:64-S128"
target triple = "x86_64-pc-linux-gnu"

%struct.Ver_Man_t_ = type { i32, i32, i32, ptr, ptr, i32, ptr, ptr, ptr, ptr, i32, i32, [2000 x i8], ptr, ptr, ptr, ptr }

; Function Attrs: nounwind uwtable
define internal void @Ver_ParseRemoveSuffixTable(ptr noundef %0) #0 {
  %2 = alloca ptr, align 8
  %3 = alloca ptr, align 8
  %4 = alloca ptr, align 8
  %5 = alloca ptr, align 8
  %6 = alloca i32, align 4
  store ptr %0, ptr %2, align 8, !tbaa !12
  call void @llvm.lifetime.start.p0(i64 8, ptr %3) #10
  call void @llvm.lifetime.start.p0(i64 8, ptr %4) #10
  call void @llvm.lifetime.start.p0(i64 8, ptr %5) #10
  %7 = load ptr, ptr %2, align 8, !tbaa !12
  %8 = getelementptr inbounds nuw %struct.Ver_Man_t_, ptr %7, i32 0, i32 8
  %9 = load ptr, ptr %8, align 8, !tbaa !63
  %10 = icmp eq ptr %9, null
  br i1 %10, label %11, label %12

11:                                               ; preds = %1
  store i32 1, ptr %6, align 4
  br label %38

12:                                               ; preds = %1
  %13 = load ptr, ptr %2, align 8, !tbaa !12
  %14 = getelementptr inbounds nuw %struct.Ver_Man_t_, ptr %13, i32 0, i32 8
  %15 = load ptr, ptr %14, align 8, !tbaa !63
  %16 = call ptr @st__init_gen(ptr noundef %15)
  store ptr %16, ptr %3, align 8, !tbaa !192
  br label %17

17:                                               ; preds = %31, %12
  %18 = load ptr, ptr %3, align 8, !tbaa !192
  %19 = call i32 @st__gen(ptr noundef %18, ptr noundef %4, ptr noundef %5)
  %20 = icmp ne i32 %19, 0
  br i1 %20, label %23, label %21

21:                                               ; preds = %17
  %22 = load ptr, ptr %3, align 8, !tbaa !192
  call void @st__free_gen(ptr noundef %22)
  br label %23

23:                                               ; preds = %21, %17
  %24 = phi i1 [ true, %17 ], [ false, %21 ]
  br i1 %24, label %25, label %32

25:                                               ; preds = %23
  %26 = load ptr, ptr %4, align 8, !tbaa !3
  %27 = icmp ne ptr %26, null
  br i1 %27, label %28, label %30

28:                                               ; preds = %25
  %29 = load ptr, ptr %4, align 8, !tbaa !3
  call void @free(ptr noundef %29) #10
  store ptr null, ptr %4, align 8, !tbaa !3
  br label %31

30:                                               ; preds = %25
  br label %31

31:                                               ; preds = %30, %28
  br label %17, !llvm.loop !194

32:                                               ; preds = %23
  %33 = load ptr, ptr %2, align 8, !tbaa !12
  %34 = getelementptr inbounds nuw %struct.Ver_Man_t_, ptr %33, i32 0, i32 8
  %35 = load ptr, ptr %34, align 8, !tbaa !63
  call void @st__free_table(ptr noundef %35)
  %36 = load ptr, ptr %2, align 8, !tbaa !12
  %37 = getelementptr inbounds nuw %struct.Ver_Man_t_, ptr %36, i32 0, i32 8
  store ptr null, ptr %37, align 8, !tbaa !63
  store i32 0, ptr %6, align 4
  br label %38

38:                                               ; preds = %32, %11
  call void @llvm.lifetime.end.p0(i64 8, ptr %5) #10
  call void @llvm.lifetime.end.p0(i64 8, ptr %4) #10
  call void @llvm.lifetime.end.p0(i64 8, ptr %3) #10
  %39 = load i32, ptr %6, align 4
  switch i32 %39, label %41 [
    i32 0, label %40
    i32 1, label %40
  ]

40:                                               ; preds = %38, %38
  ret void

41:                                               ; preds = %38
  unreachable
}