; Function Attrs: nounwind uwtable
define internal fastcc void @Ver_ParseRemoveSuffixTable(ptr noundef captures(none) %0) unnamed_addr #0 {
  %2 = alloca ptr, align 8
  %3 = alloca ptr, align 8
  call void @llvm.lifetime.start.p0(i64 8, ptr nonnull %2) #20
  call void @llvm.lifetime.start.p0(i64 8, ptr nonnull %3) #20
  %4 = getelementptr inbounds nuw i8, ptr %0, i64 56
  %5 = load ptr, ptr %4, align 8, !tbaa !91
  %6 = icmp eq ptr %5, null
  br i1 %6, label %15, label %7

7:                                                ; preds = %1
  %8 = tail call ptr @st__init_gen(ptr noundef nonnull %5) #20
  %9 = call i32 @st__gen(ptr noundef %8, ptr noundef nonnull %2, ptr noundef nonnull %3) #20
  %.not8 = icmp eq i32 %9, 0
  br i1 %.not8, label %._crit_edge, label %.critedge

._crit_edge:                                      ; preds = %13, %7
  call void @st__free_gen(ptr noundef %8) #20
  %10 = load ptr, ptr %4, align 8, !tbaa !91
  call void @st__free_table(ptr noundef %10) #20
  store ptr null, ptr %4, align 8, !tbaa !91
  br label %15

.critedge:                                        ; preds = %7, %13
  %11 = load ptr, ptr %2, align 8, !tbaa !92
  %.not7 = icmp eq ptr %11, null
  br i1 %.not7, label %13, label %12

12:                                               ; preds = %.critedge
  call void @free(ptr noundef nonnull %11) #20
  store ptr null, ptr %2, align 8, !tbaa !92
  br label %13

13:                                               ; preds = %.critedge, %12
  %14 = call i32 @st__gen(ptr noundef %8, ptr noundef nonnull %2, ptr noundef nonnull %3) #20
  %.not = icmp eq i32 %14, 0
  br i1 %.not, label %._crit_edge, label %.critedge, !llvm.loop !180

15:                                               ; preds = %1, %._crit_edge
  call void @llvm.lifetime.end.p0(i64 8, ptr nonnull %3) #20
  call void @llvm.lifetime.end.p0(i64 8, ptr nonnull %2) #20
  ret void
}